; Function Attrs: nounwind uwtable
define dso_local void @xorDigest(ptr nocapture noundef %digest, ptr noundef %ptr, i64 noundef %len) local_unnamed_addr #0 {
entry:
  %ctx = alloca %struct.SHA1_CTX, align 4
  %hash = alloca [20 x i8], align 16
  call void @SHA1Init(ptr noundef nonnull %ctx) #22
  %conv = trunc i64 %len to i32
  call void @SHA1Update(ptr noundef nonnull %ctx, ptr noundef %ptr, i32 noundef %conv) #22
  call void @SHA1Final(ptr noundef nonnull %hash, ptr noundef nonnull %ctx) #22
  br label %for.body

for.body:                                         ; preds = %entry, %for.body
  %indvars.iv = phi i64 [ 0, %entry ], [ %indvars.iv.next, %for.body ]
  %arrayidx = getelementptr inbounds [20 x i8], ptr %hash, i64 0, i64 %indvars.iv
  %0 = load i8, ptr %arrayidx, align 1
  %arrayidx4 = getelementptr inbounds i8, ptr %digest, i64 %indvars.iv
  %1 = load i8, ptr %arrayidx4, align 1
  %xor4 = xor i8 %1, %0
  store i8 %xor4, ptr %arrayidx4, align 1
  %indvars.iv.next = add nuw nsw i64 %indvars.iv, 1
  %exitcond.not = icmp eq i64 %indvars.iv.next, 20
  br i1 %exitcond.not, label %for.end, label %for.body, !llvm.loop !5

for.end:                                          ; preds = %for.body
  ret void
}